target datalayout = "e-m:e-p270:32:32-p271:32:32-p272:64:64-i64:64-i128:128-f80:128-n8:16:32:64-S128"
target triple = "x86_64-unknown-linux-gnu"

; Function Attrs: mustprogress nounwind uwtable
define linkonce_odr hidden noundef i32 @_ZNSt14numeric_limitsIiE3maxEv() #1 comdat align 2 {
entry:
  ret i32 2147483647
}

; Function Attrs: mustprogress nounwind uwtable
define noundef i32 @_ZN13IlmThread_3_210ThreadPool28estimateThreadCountForFileIOEv() #1 align 2 {
entry:
  %rv = alloca i32, align 4
  %call = call noundef i32 @_ZNSt6thread20hardware_concurrencyEv() #8
  store i32 %call, ptr %rv, align 4
  %0 = load i32, ptr %rv, align 4
  %cmp = icmp eq i32 %0, 0
  br i1 %cmp, label %if.then, label %lor.lhs.false

lor.lhs.false:                                    ; preds = %entry
  %1 = load i32, ptr %rv, align 4
  %call1 = call noundef i32 @_ZNSt14numeric_limitsIiE3maxEv() #8
  %cmp2 = icmp ugt i32 %1, %call1
  br i1 %cmp2, label %if.then, label %if.end

if.then:                                          ; preds = %lor.lhs.false, %entry
  store i32 1, ptr %rv, align 4
  %call3 = call i64 @sysconf(i32 noundef 84) #8
  %conv = trunc i64 %call3 to i32
  store i32 %conv, ptr %rv, align 4
  br label %if.end

if.end:                                           ; preds = %if.then, %lor.lhs.false
  %2 = load i32, ptr %rv, align 4
  ret i32 %2
}