; Function Attrs: mustprogress nounwind uwtable
define noundef i32 @_ZN13IlmThread_3_210ThreadPool28estimateThreadCountForFileIOEv() local_unnamed_addr #2 align 2 {
entry:
  %call = tail call noundef i32 @_ZNSt6thread20hardware_concurrencyEv() #23
  %or.cond = icmp slt i32 %call, 1
  br i1 %or.cond, label %if.then, label %if.end

if.then:                                          ; preds = %entry
  %call3 = tail call i64 @sysconf(i32 noundef 84) #23
  %conv = trunc i64 %call3 to i32
  br label %if.end

if.end:                                           ; preds = %entry, %if.then
  %rv.0 = phi i32 [ %conv, %if.then ], [ %call, %entry ]
  ret i32 %rv.0
}